ARM GAS  C:\Users\VINODK~1\AppData\Local\Temp\ccidyYPU.s 			page 1


   1              		.syntax unified
   2              		.cpu cortex-m3
   3              		.fpu softvfp
   4              		.eabi_attribute 20, 1
   5              		.eabi_attribute 21, 1
   6              		.eabi_attribute 23, 3
   7              		.eabi_attribute 24, 1
   8              		.eabi_attribute 25, 1
   9              		.eabi_attribute 26, 1
  10              		.eabi_attribute 30, 1
  11              		.eabi_attribute 34, 1
  12              		.eabi_attribute 18, 4
  13              		.thumb
  14              		.syntax unified
  15              		.file	"main.c"
  16              		.text
  17              	.Ltext0:
  18              		.cfi_sections	.debug_frame
  19              		.section	.text.ISR_button,"ax",%progbits
  20              		.align	2
  21              		.global	ISR_button
  22              		.thumb
  23              		.thumb_func
  24              		.type	ISR_button, %function
  25              	ISR_button:
  26              	.LFB63:
  27              		.file 1 "main.c"
   1:main.c        **** /* ===============================================================
   2:main.c        ****  *
   3:main.c        ****  * Copyright YOUR COMPANY, THE YEAR
   4:main.c        ****  * All Rights Reserved
   5:main.c        ****  * UNPUBLISHED, LICENSED SOFTWARE.
   6:main.c        ****  *
   7:main.c        ****  * CONFIDENTIAL AND PROPRIETARY INFORMATION
   8:main.c        ****  * WHICH IS THE PROPERTY OF your company.
   9:main.c        ****  *
  10:main.c        ****  * ===============================================================
  11:main.c        ****  * ===============================================================
  12:main.c        ****  * Name                 : Vinod Kumar Kanchi
  13:main.c        ****  * Matriculation Number : 769596
  14:main.c        ****  * Major                : Communication
  15:main.c        ****  * Email Id             : vinod.k.kanchi@stud.h-da.de
  16:main.c        ****  * ===============================================================*/
  17:main.c        **** 
  18:main.c        **** #include "project.h"
  19:main.c        **** 
  20:main.c        **** uint16_t SampledArray[1024];                    //To store the sampled data into an array.
  21:main.c        **** 
  22:main.c        **** uint8_t character;                              //A global variable to check the character received
  23:main.c        **** uint8_t SamplingState;                          //A global variable to check if sampling is done co
  24:main.c        **** 
  25:main.c        **** typedef enum
  26:main.c        **** {   IS_Idle,
  27:main.c        ****     IS_Sampling,
  28:main.c        ****     IS_UART_Transfer,
  29:main.c        **** }System_state;                                  //To define the different states.
  30:main.c        **** 
ARM GAS  C:\Users\VINODK~1\AppData\Local\Temp\ccidyYPU.s 			page 2


  31:main.c        **** System_state state = IS_Idle;                   //Initialize the state to idle.
  32:main.c        **** 
  33:main.c        **** void ISR_button(void)
  34:main.c        **** {
  28              		.loc 1 34 0
  29              		.cfi_startproc
  30              		@ args = 0, pretend = 0, frame = 0
  31              		@ frame_needed = 0, uses_anonymous_args = 0
  32 0000 08B5     		push	{r3, lr}
  33              		.cfi_def_cfa_offset 8
  34              		.cfi_offset 3, -8
  35              		.cfi_offset 14, -4
  35:main.c        ****     state= IS_Sampling;
  36              		.loc 1 35 0
  37 0002 0122     		movs	r2, #1
  38 0004 024B     		ldr	r3, .L3
  39 0006 1A70     		strb	r2, [r3]
  36:main.c        ****     Pin_PushButton_ClearInterrupt();            
  40              		.loc 1 36 0
  41 0008 FFF7FEFF 		bl	Pin_PushButton_ClearInterrupt
  42              	.LVL0:
  43 000c 08BD     		pop	{r3, pc}
  44              	.L4:
  45 000e 00BF     		.align	2
  46              	.L3:
  47 0010 00000000 		.word	.LANCHOR0
  48              		.cfi_endproc
  49              	.LFE63:
  50              		.size	ISR_button, .-ISR_button
  51              		.section	.text.UART_INT,"ax",%progbits
  52              		.align	2
  53              		.global	UART_INT
  54              		.thumb
  55              		.thumb_func
  56              		.type	UART_INT, %function
  57              	UART_INT:
  58              	.LFB64:
  37:main.c        **** }                                               //An interrupt to detect the button press and to cl
  38:main.c        **** 
  39:main.c        **** void UART_INT(void)
  40:main.c        **** {
  59              		.loc 1 40 0
  60              		.cfi_startproc
  61              		@ args = 0, pretend = 0, frame = 0
  62              		@ frame_needed = 0, uses_anonymous_args = 0
  63 0000 08B5     		push	{r3, lr}
  64              		.cfi_def_cfa_offset 8
  65              		.cfi_offset 3, -8
  66              		.cfi_offset 14, -4
  41:main.c        ****     character= UART_GetChar();
  67              		.loc 1 41 0
  68 0002 FFF7FEFF 		bl	UART_GetChar
  69              	.LVL1:
  70 0006 024B     		ldr	r3, .L7
  71 0008 1870     		strb	r0, [r3]
  42:main.c        ****     isr_UART_ClearPending();
  72              		.loc 1 42 0
ARM GAS  C:\Users\VINODK~1\AppData\Local\Temp\ccidyYPU.s 			page 3


  73 000a FFF7FEFF 		bl	isr_UART_ClearPending
  74              	.LVL2:
  75 000e 08BD     		pop	{r3, pc}
  76              	.L8:
  77              		.align	2
  78              	.L7:
  79 0010 00000000 		.word	character
  80              		.cfi_endproc
  81              	.LFE64:
  82              		.size	UART_INT, .-UART_INT
  83              		.section	.text.isr_ADC,"ax",%progbits
  84              		.align	2
  85              		.global	isr_ADC
  86              		.thumb
  87              		.thumb_func
  88              		.type	isr_ADC, %function
  89              	isr_ADC:
  90              	.LFB65:
  43:main.c        **** }                                               //An interrupt to detect the character and to clear
  44:main.c        **** 
  45:main.c        **** CY_ISR_PROTO(isr_ADC);
  46:main.c        **** 
  47:main.c        **** CY_ISR(isr_ADC)
  48:main.c        **** {
  91              		.loc 1 48 0
  92              		.cfi_startproc
  93              		@ args = 0, pretend = 0, frame = 0
  94              		@ frame_needed = 0, uses_anonymous_args = 0
  95 0000 08B5     		push	{r3, lr}
  96              		.cfi_def_cfa_offset 8
  97              		.cfi_offset 3, -8
  98              		.cfi_offset 14, -4
  49:main.c        ****     isr_ADC_ClearPending();
  99              		.loc 1 49 0
 100 0002 FFF7FEFF 		bl	isr_ADC_ClearPending
 101              	.LVL3:
 102 0006 08BD     		pop	{r3, pc}
 103              		.cfi_endproc
 104              	.LFE65:
 105              		.size	isr_ADC, .-isr_ADC
 106              		.section	.text.main,"ax",%progbits
 107              		.align	2
 108              		.global	main
 109              		.thumb
 110              		.thumb_func
 111              		.type	main, %function
 112              	main:
 113              	.LFB66:
  50:main.c        ****     
  51:main.c        **** }                                               //An interrupt to clear the interrupt of ADC.
  52:main.c        ****     
  53:main.c        **** int main(void)
  54:main.c        **** {
 114              		.loc 1 54 0
 115              		.cfi_startproc
 116              		@ args = 0, pretend = 0, frame = 0
 117              		@ frame_needed = 0, uses_anonymous_args = 0
ARM GAS  C:\Users\VINODK~1\AppData\Local\Temp\ccidyYPU.s 			page 4


 118 0000 38B5     		push	{r3, r4, r5, lr}
 119              		.cfi_def_cfa_offset 16
 120              		.cfi_offset 3, -16
 121              		.cfi_offset 4, -12
 122              		.cfi_offset 5, -8
 123              		.cfi_offset 14, -4
  55:main.c        ****     
  56:main.c        ****     CyGlobalIntEnable;                          /* Enable global interrupts. */
 124              		.loc 1 56 0
 125              		.syntax unified
 126              	@ 56 "main.c" 1
 127 0002 62B6     		CPSIE   i
 128              	@ 0 "" 2
  57:main.c        ****    
  58:main.c        ****     isr_ADC_StartEx(isr_ADC);
 129              		.loc 1 58 0
 130              		.thumb
 131              		.syntax unified
 132 0004 3B48     		ldr	r0, .L24
 133 0006 FFF7FEFF 		bl	isr_ADC_StartEx
 134              	.LVL4:
  59:main.c        ****     isr_PushButton_StartEx(ISR_button);
 135              		.loc 1 59 0
 136 000a 3B48     		ldr	r0, .L24+4
 137 000c FFF7FEFF 		bl	isr_PushButton_StartEx
 138              	.LVL5:
  60:main.c        ****     isr_UART_StartEx(UART_INT);                 //Starts all the interrupts.
 139              		.loc 1 60 0
 140 0010 3A48     		ldr	r0, .L24+8
 141 0012 FFF7FEFF 		bl	isr_UART_StartEx
 142              	.LVL6:
 143              	.L13:
  61:main.c        ****     
  62:main.c        ****     
  63:main.c        ****     
  64:main.c        ****     for(;;)
  65:main.c        ****     {
  66:main.c        ****         switch(state)
 144              		.loc 1 66 0
 145 0016 3A4B     		ldr	r3, .L24+12
 146 0018 1B78     		ldrb	r3, [r3]	@ zero_extendqisi2
 147 001a 012B     		cmp	r3, #1
 148 001c 16D0     		beq	.L14
 149 001e 13B1     		cbz	r3, .L15
 150 0020 022B     		cmp	r3, #2
 151 0022 51D0     		beq	.L22
 152 0024 F7E7     		b	.L13
 153              	.L15:
  67:main.c        ****             {
  68:main.c        ****                 case IS_Idle:
  69:main.c        ****                        
  70:main.c        ****                     WaveDAC8_Start();
 154              		.loc 1 70 0
 155 0026 FFF7FEFF 		bl	WaveDAC8_Start
 156              	.LVL7:
  71:main.c        ****                     ADC_DelSig_Start(); 
 157              		.loc 1 71 0
ARM GAS  C:\Users\VINODK~1\AppData\Local\Temp\ccidyYPU.s 			page 5


 158 002a FFF7FEFF 		bl	ADC_DelSig_Start
 159              	.LVL8:
  72:main.c        ****                     UART_Start();                               //Starts all the devices.
 160              		.loc 1 72 0
 161 002e FFF7FEFF 		bl	UART_Start
 162              	.LVL9:
  73:main.c        ****                 
  74:main.c        ****                     SamplingState = 0;      //Set the sampling state to 0 initially.
 163              		.loc 1 74 0
 164 0032 0024     		movs	r4, #0
 165 0034 334B     		ldr	r3, .L24+16
 166 0036 1C70     		strb	r4, [r3]
  75:main.c        ****                     PinYellow_Write(0);
 167              		.loc 1 75 0
 168 0038 2046     		mov	r0, r4
 169 003a FFF7FEFF 		bl	PinYellow_Write
 170              	.LVL10:
  76:main.c        ****                     PinRed_Write(1);
 171              		.loc 1 76 0
 172 003e 0120     		movs	r0, #1
 173 0040 FFF7FEFF 		bl	PinRed_Write
 174              	.LVL11:
  77:main.c        ****                     PinGreen_Write(0);
 175              		.loc 1 77 0
 176 0044 2046     		mov	r0, r4
 177 0046 FFF7FEFF 		bl	PinGreen_Write
 178              	.LVL12:
  78:main.c        ****                                             //Make Red LED glow and other LED's Off to indicate idl
  79:main.c        ****                     break;
 179              		.loc 1 79 0
 180 004a E4E7     		b	.L13
 181              	.L14:
  80:main.c        ****                             
  81:main.c        ****                 case IS_Sampling:
  82:main.c        ****                                                                  
  83:main.c        ****                     PinYellow_Write(1);
 182              		.loc 1 83 0
 183 004c 0120     		movs	r0, #1
 184 004e FFF7FEFF 		bl	PinYellow_Write
 185              	.LVL13:
  84:main.c        ****                     PinRed_Write(0);
 186              		.loc 1 84 0
 187 0052 0020     		movs	r0, #0
 188 0054 FFF7FEFF 		bl	PinRed_Write
 189              	.LVL14:
  85:main.c        ****                     PinGreen_Write(0);      //Make Yellow LED glow and other LED's Off to indicate 
 190              		.loc 1 85 0
 191 0058 0020     		movs	r0, #0
 192 005a FFF7FEFF 		bl	PinGreen_Write
 193              	.LVL15:
  86:main.c        ****                     if(SamplingState ==0)   //If sampling state is 0 and push button is pressed sta
 194              		.loc 1 86 0
 195 005e 294B     		ldr	r3, .L24+16
 196 0060 1B78     		ldrb	r3, [r3]	@ zero_extendqisi2
 197 0062 9BB9     		cbnz	r3, .L18
  87:main.c        ****                     {
  88:main.c        ****                         ADC_DelSig_StartConvert();  //ADC Starts conversion.
ARM GAS  C:\Users\VINODK~1\AppData\Local\Temp\ccidyYPU.s 			page 6


 198              		.loc 1 88 0
 199 0064 FFF7FEFF 		bl	ADC_DelSig_StartConvert
 200              	.LVL16:
 201              	.LBB2:
  89:main.c        ****                         for(uint16_t i=0; i<1024; i++)
 202              		.loc 1 89 0
 203 0068 0024     		movs	r4, #0
 204 006a 09E0     		b	.L19
 205              	.LVL17:
 206              	.L20:
  90:main.c        ****                         {
  91:main.c        ****                             ADC_DelSig_IsEndConversion(ADC_DelSig_WAIT_FOR_RESULT);
 207              		.loc 1 91 0 discriminator 3
 208 006c 0020     		movs	r0, #0
 209 006e FFF7FEFF 		bl	ADC_DelSig_IsEndConversion
 210              	.LVL18:
  92:main.c        ****                             SampledArray[i] = ADC_DelSig_GetResult16();
 211              		.loc 1 92 0 discriminator 3
 212 0072 FFF7FEFF 		bl	ADC_DelSig_GetResult16
 213              	.LVL19:
 214 0076 244B     		ldr	r3, .L24+20
 215 0078 23F81400 		strh	r0, [r3, r4, lsl #1]	@ movhi
  89:main.c        ****                         for(uint16_t i=0; i<1024; i++)
 216              		.loc 1 89 0 discriminator 3
 217 007c 0134     		adds	r4, r4, #1
 218              	.LVL20:
 219 007e A4B2     		uxth	r4, r4
 220              	.LVL21:
 221              	.L19:
  89:main.c        ****                         for(uint16_t i=0; i<1024; i++)
 222              		.loc 1 89 0 is_stmt 0 discriminator 1
 223 0080 B4F5806F 		cmp	r4, #1024
 224 0084 F2D3     		bcc	.L20
 225              	.LBE2:
  93:main.c        ****                             
  94:main.c        ****                         }                   /*A loop of 1024 to stop the conversion and sampling at
  95:main.c        ****                                                 and store the value in an array.*/
  96:main.c        ****                         SamplingState = 1;  //To indicate sampling is done for once.
 226              		.loc 1 96 0 is_stmt 1
 227 0086 0122     		movs	r2, #1
 228 0088 1E4B     		ldr	r3, .L24+16
 229 008a 1A70     		strb	r2, [r3]
 230              	.LVL22:
 231              	.L18:
  97:main.c        ****                     }
  98:main.c        **** 
  99:main.c        ****                     if(character=='s' && SamplingState==1)
 232              		.loc 1 99 0
 233 008c 1F4B     		ldr	r3, .L24+24
 234 008e 1B78     		ldrb	r3, [r3]	@ zero_extendqisi2
 235 0090 732B     		cmp	r3, #115
 236 0092 C0D1     		bne	.L13
 237              		.loc 1 99 0 is_stmt 0 discriminator 1
 238 0094 1B4B     		ldr	r3, .L24+16
 239 0096 1B78     		ldrb	r3, [r3]	@ zero_extendqisi2
 240 0098 012B     		cmp	r3, #1
 241 009a BCD1     		bne	.L13
ARM GAS  C:\Users\VINODK~1\AppData\Local\Temp\ccidyYPU.s 			page 7


 100:main.c        ****                     {
 101:main.c        ****                         state = IS_UART_Transfer;
 242              		.loc 1 101 0 is_stmt 1
 243 009c 0222     		movs	r2, #2
 244 009e 184B     		ldr	r3, .L24+12
 245 00a0 1A70     		strb	r2, [r3]
 102:main.c        ****                         SamplingState = 0;
 246              		.loc 1 102 0
 247 00a2 0023     		movs	r3, #0
 248 00a4 174A     		ldr	r2, .L24+16
 249 00a6 1370     		strb	r3, [r2]
 103:main.c        ****                         character = 0;
 250              		.loc 1 103 0
 251 00a8 184A     		ldr	r2, .L24+24
 252 00aa 1370     		strb	r3, [r2]
 253 00ac B3E7     		b	.L13
 254              	.LVL23:
 255              	.L21:
 256              	.LBB3:
 104:main.c        ****                      }                      /*If character is 's' and sampling state is 1, then cha
 105:main.c        ****                                                  and reset sampling state and character to 0 for on
 106:main.c        ****                         break;
 107:main.c        ****                         
 108:main.c        ****                 case IS_UART_Transfer:
 109:main.c        ****                             
 110:main.c        ****                       for(uint16_t i=0;i<1024;i++)
 111:main.c        ****                          {
 112:main.c        ****                             UART_PutChar(SampledArray[i]);
 257              		.loc 1 112 0 discriminator 3
 258 00ae 164D     		ldr	r5, .L24+20
 259 00b0 15F81400 		ldrb	r0, [r5, r4, lsl #1]	@ zero_extendqisi2
 260 00b4 FFF7FEFF 		bl	UART_PutChar
 261              	.LVL24:
 113:main.c        ****                             UART_PutChar(SampledArray[i]>>8);
 262              		.loc 1 113 0 discriminator 3
 263 00b8 35F81400 		ldrh	r0, [r5, r4, lsl #1]
 264 00bc 000A     		lsrs	r0, r0, #8
 265 00be FFF7FEFF 		bl	UART_PutChar
 266              	.LVL25:
 110:main.c        ****                          {
 267              		.loc 1 110 0 discriminator 3
 268 00c2 0134     		adds	r4, r4, #1
 269              	.LVL26:
 270 00c4 A4B2     		uxth	r4, r4
 271              	.LVL27:
 272 00c6 00E0     		b	.L16
 273              	.LVL28:
 274              	.L22:
 275              	.LBE3:
  66:main.c        ****             {
 276              		.loc 1 66 0
 277 00c8 0024     		movs	r4, #0
 278              	.L16:
 279              	.LVL29:
 280              	.LBB4:
 110:main.c        ****                          {
 281              		.loc 1 110 0 discriminator 1
ARM GAS  C:\Users\VINODK~1\AppData\Local\Temp\ccidyYPU.s 			page 8


 282 00ca B4F5806F 		cmp	r4, #1024
 283 00ce EED3     		bcc	.L21
 284              	.LBE4:
 114:main.c        ****                          }                  /*Loop to transfer data to MATLAB, 8 bits at a time and
 115:main.c        ****                                               8 times to get the next 8 bits.*/  
 116:main.c        ****             
 117:main.c        ****                         PinGreen_Write(1);
 285              		.loc 1 117 0
 286 00d0 0120     		movs	r0, #1
 287 00d2 FFF7FEFF 		bl	PinGreen_Write
 288              	.LVL30:
 118:main.c        ****                         PinRed_Write(0);
 289              		.loc 1 118 0
 290 00d6 0020     		movs	r0, #0
 291 00d8 FFF7FEFF 		bl	PinRed_Write
 292              	.LVL31:
 119:main.c        ****                         PinYellow_Write(0); //Make Green LED glow and other LED's Off to indicate T
 293              		.loc 1 119 0
 294 00dc 0020     		movs	r0, #0
 295 00de FFF7FEFF 		bl	PinYellow_Write
 296              	.LVL32:
 120:main.c        ****                                             
 121:main.c        ****                         if(character == 'o')
 297              		.loc 1 121 0
 298 00e2 0A4B     		ldr	r3, .L24+24
 299 00e4 1B78     		ldrb	r3, [r3]	@ zero_extendqisi2
 300 00e6 6F2B     		cmp	r3, #111
 301 00e8 95D1     		bne	.L13
 122:main.c        ****                         {
 123:main.c        ****                              state=IS_Sampling; //If MATLAB sends character 'o' then move back to s
 302              		.loc 1 123 0
 303 00ea 0122     		movs	r2, #1
 304 00ec 044B     		ldr	r3, .L24+12
 305 00ee 1A70     		strb	r2, [r3]
 306 00f0 91E7     		b	.L13
 307              	.L25:
 308 00f2 00BF     		.align	2
 309              	.L24:
 310 00f4 00000000 		.word	isr_ADC
 311 00f8 00000000 		.word	ISR_button
 312 00fc 00000000 		.word	UART_INT
 313 0100 00000000 		.word	.LANCHOR0
 314 0104 00000000 		.word	SamplingState
 315 0108 00000000 		.word	SampledArray
 316 010c 00000000 		.word	character
 317              		.cfi_endproc
 318              	.LFE66:
 319              		.size	main, .-main
 320              		.global	state
 321              		.comm	SamplingState,1,1
 322              		.comm	character,1,1
 323              		.comm	SampledArray,2048,4
 324              		.bss
 325              		.set	.LANCHOR0,. + 0
 326              		.type	state, %object
 327              		.size	state, 1
 328              	state:
ARM GAS  C:\Users\VINODK~1\AppData\Local\Temp\ccidyYPU.s 			page 9


 329 0000 00       		.space	1
 330              		.text
 331              	.Letext0:
 332              		.file 2 "c:\\program files (x86)\\cypress\\psoc creator\\4.4\\psoc creator\\import\\gnu\\arm\\5.4.
 333              		.file 3 "c:\\program files (x86)\\cypress\\psoc creator\\4.4\\psoc creator\\import\\gnu\\arm\\5.4.
 334              		.file 4 "Generated_Source\\PSoC5/core_cm3.h"
 335              		.file 5 "Generated_Source\\PSoC5/Pin_PushButton.h"
 336              		.file 6 "Generated_Source\\PSoC5/UART.h"
 337              		.file 7 "Generated_Source\\PSoC5/isr_UART.h"
 338              		.file 8 "Generated_Source\\PSoC5/isr_ADC.h"
 339              		.file 9 "Generated_Source\\PSoC5/ADC_DelSig.h"
 340              		.file 10 "Generated_Source\\PSoC5/isr_PushButton.h"
 341              		.file 11 "Generated_Source\\PSoC5/WaveDAC8.h"
 342              		.file 12 "Generated_Source\\PSoC5/PinYellow.h"
 343              		.file 13 "Generated_Source\\PSoC5/PinRed.h"
 344              		.file 14 "Generated_Source\\PSoC5/PinGreen.h"