ARM GAS  C:\Users\VINODK~1\AppData\Local\Temp\ccuspwYo.s 			page 1


   1              		.syntax unified
   2              		.cpu cortex-m3
   3              		.fpu softvfp
   4              		.eabi_attribute 20, 1
   5              		.eabi_attribute 21, 1
   6              		.eabi_attribute 23, 3
   7              		.eabi_attribute 24, 1
   8              		.eabi_attribute 25, 1
   9              		.eabi_attribute 26, 1
  10              		.eabi_attribute 30, 1
  11              		.eabi_attribute 34, 1
  12              		.eabi_attribute 18, 4
  13              		.thumb
  14              		.syntax unified
  15              		.file	"main.c"
  16              		.text
  17              	.Ltext0:
  18              		.cfi_sections	.debug_frame
  19              		.section	.text.ISR_button,"ax",%progbits
  20              		.align	2
  21              		.global	ISR_button
  22              		.thumb
  23              		.thumb_func
  24              		.type	ISR_button, %function
  25              	ISR_button:
  26              	.LFB63:
  27              		.file 1 "main.c"
   1:main.c        **** /* ===============================================================
   2:main.c        ****  *
   3:main.c        ****  * Copyright YOUR COMPANY, THE YEAR
   4:main.c        ****  * All Rights Reserved
   5:main.c        ****  * UNPUBLISHED, LICENSED SOFTWARE.
   6:main.c        ****  *
   7:main.c        ****  * CONFIDENTIAL AND PROPRIETARY INFORMATION
   8:main.c        ****  * WHICH IS THE PROPERTY OF your company.
   9:main.c        ****  *
  10:main.c        ****  * ===============================================================
  11:main.c        ****  * ===============================================================
  12:main.c        ****  * Name                 : Vinod Kumar Kanchi
  13:main.c        ****  * Matriculation Number : 769596
  14:main.c        ****  * Major                : Communication
  15:main.c        ****  * Email Id             : vinod.k.kanchi@stud.h-da.de
  16:main.c        ****  * ===============================================================*/
  17:main.c        **** 
  18:main.c        **** #include "project.h"
  19:main.c        **** 
  20:main.c        **** uint16_t SampledArray[1024];                    //To store the sampled data into an array.
  21:main.c        **** 
  22:main.c        **** uint8_t character;                              //A global variable to check the character received
  23:main.c        **** uint8_t SamplingState;                          //A global variable to check if sampling is done co
  24:main.c        **** 
  25:main.c        **** typedef enum
  26:main.c        **** {   IS_Idle,
  27:main.c        ****     IS_Sampling,
  28:main.c        ****     IS_UART_Transfer,
  29:main.c        **** }System_state;                                  //To define the different states.
  30:main.c        **** 
ARM GAS  C:\Users\VINODK~1\AppData\Local\Temp\ccuspwYo.s 			page 2


  31:main.c        **** System_state state = IS_Idle;                   //Initialize the state to idle.
  32:main.c        **** 
  33:main.c        **** void ISR_button(void)
  34:main.c        **** {
  28              		.loc 1 34 0
  29              		.cfi_startproc
  30              		@ args = 0, pretend = 0, frame = 0
  31              		@ frame_needed = 0, uses_anonymous_args = 0
  32 0000 08B5     		push	{r3, lr}
  33              		.cfi_def_cfa_offset 8
  34              		.cfi_offset 3, -8
  35              		.cfi_offset 14, -4
  35:main.c        ****     state= IS_Sampling;
  36              		.loc 1 35 0
  37 0002 0122     		movs	r2, #1
  38 0004 024B     		ldr	r3, .L3
  39 0006 1A70     		strb	r2, [r3]
  36:main.c        ****     Pin_PushButton_ClearInterrupt();            
  40              		.loc 1 36 0
  41 0008 FFF7FEFF 		bl	Pin_PushButton_ClearInterrupt
  42              	.LVL0:
  43 000c 08BD     		pop	{r3, pc}
  44              	.L4:
  45 000e 00BF     		.align	2
  46              	.L3:
  47 0010 00000000 		.word	.LANCHOR0
  48              		.cfi_endproc
  49              	.LFE63:
  50              		.size	ISR_button, .-ISR_button
  51              		.section	.text.UART_INT,"ax",%progbits
  52              		.align	2
  53              		.global	UART_INT
  54              		.thumb
  55              		.thumb_func
  56              		.type	UART_INT, %function
  57              	UART_INT:
  58              	.LFB64:
  37:main.c        **** }                                               //An interrupt routine to detect the button press a
  38:main.c        **** 
  39:main.c        **** void UART_INT(void)
  40:main.c        **** {
  59              		.loc 1 40 0
  60              		.cfi_startproc
  61              		@ args = 0, pretend = 0, frame = 0
  62              		@ frame_needed = 0, uses_anonymous_args = 0
  63 0000 08B5     		push	{r3, lr}
  64              		.cfi_def_cfa_offset 8
  65              		.cfi_offset 3, -8
  66              		.cfi_offset 14, -4
  41:main.c        ****     character= UART_GetChar();
  67              		.loc 1 41 0
  68 0002 FFF7FEFF 		bl	UART_GetChar
  69              	.LVL1:
  70 0006 024B     		ldr	r3, .L7
  71 0008 1870     		strb	r0, [r3]
  42:main.c        ****     isr_UART_ClearPending();
  72              		.loc 1 42 0
ARM GAS  C:\Users\VINODK~1\AppData\Local\Temp\ccuspwYo.s 			page 3


  73 000a FFF7FEFF 		bl	isr_UART_ClearPending
  74              	.LVL2:
  75 000e 08BD     		pop	{r3, pc}
  76              	.L8:
  77              		.align	2
  78              	.L7:
  79 0010 00000000 		.word	character
  80              		.cfi_endproc
  81              	.LFE64:
  82              		.size	UART_INT, .-UART_INT
  83              		.section	.text.isr_ADC,"ax",%progbits
  84              		.align	2
  85              		.global	isr_ADC
  86              		.thumb
  87              		.thumb_func
  88              		.type	isr_ADC, %function
  89              	isr_ADC:
  90              	.LFB65:
  43:main.c        **** }                                               //An interrupt routine to detect the character and 
  44:main.c        **** 
  45:main.c        **** CY_ISR_PROTO(isr_ADC);
  46:main.c        **** 
  47:main.c        **** CY_ISR(isr_ADC)
  48:main.c        **** {
  91              		.loc 1 48 0
  92              		.cfi_startproc
  93              		@ args = 0, pretend = 0, frame = 0
  94              		@ frame_needed = 0, uses_anonymous_args = 0
  95 0000 08B5     		push	{r3, lr}
  96              		.cfi_def_cfa_offset 8
  97              		.cfi_offset 3, -8
  98              		.cfi_offset 14, -4
  49:main.c        ****     isr_ADC_ClearPending();
  99              		.loc 1 49 0
 100 0002 FFF7FEFF 		bl	isr_ADC_ClearPending
 101              	.LVL3:
 102 0006 08BD     		pop	{r3, pc}
 103              		.cfi_endproc
 104              	.LFE65:
 105              		.size	isr_ADC, .-isr_ADC
 106              		.section	.text.statechange,"ax",%progbits
 107              		.align	2
 108              		.global	statechange
 109              		.thumb
 110              		.thumb_func
 111              		.type	statechange, %function
 112              	statechange:
 113              	.LFB67:
  50:main.c        ****     
  51:main.c        **** }                                               //An interrupt routine to clear the interrupt of AD
  52:main.c        ****  
  53:main.c        **** 
  54:main.c        **** void statechange(void);
  55:main.c        **** int main(void)
  56:main.c        **** {
  57:main.c        ****     
  58:main.c        ****     CyGlobalIntEnable;                          /* Enable global interrupts. */
ARM GAS  C:\Users\VINODK~1\AppData\Local\Temp\ccuspwYo.s 			page 4


  59:main.c        ****    
  60:main.c        ****     isr_ADC_StartEx(isr_ADC);
  61:main.c        ****     isr_PushButton_StartEx(ISR_button);
  62:main.c        ****     isr_UART_StartEx(UART_INT);                 //Starts all the interrupts.
  63:main.c        ****     
  64:main.c        ****     
  65:main.c        ****     
  66:main.c        ****     for(;;)
  67:main.c        ****     {
  68:main.c        ****         statechange();
  69:main.c        ****     }
  70:main.c        **** 
  71:main.c        **** }
  72:main.c        **** 
  73:main.c        **** 
  74:main.c        **** 
  75:main.c        **** void statechange()
  76:main.c        **** {
 114              		.loc 1 76 0
 115              		.cfi_startproc
 116              		@ args = 0, pretend = 0, frame = 0
 117              		@ frame_needed = 0, uses_anonymous_args = 0
 118 0000 38B5     		push	{r3, r4, r5, lr}
 119              		.cfi_def_cfa_offset 16
 120              		.cfi_offset 3, -16
 121              		.cfi_offset 4, -12
 122              		.cfi_offset 5, -8
 123              		.cfi_offset 14, -4
  77:main.c        ****     switch(state)
 124              		.loc 1 77 0
 125 0002 374B     		ldr	r3, .L22
 126 0004 1B78     		ldrb	r3, [r3]	@ zero_extendqisi2
 127 0006 012B     		cmp	r3, #1
 128 0008 16D0     		beq	.L13
 129 000a 13B1     		cbz	r3, .L14
 130 000c 022B     		cmp	r3, #2
 131 000e 51D0     		beq	.L20
 132 0010 38BD     		pop	{r3, r4, r5, pc}
 133              	.L14:
  78:main.c        ****             {
  79:main.c        ****                 case IS_Idle:
  80:main.c        ****                        
  81:main.c        ****                     WaveDAC8_Start();
 134              		.loc 1 81 0
 135 0012 FFF7FEFF 		bl	WaveDAC8_Start
 136              	.LVL4:
  82:main.c        ****                     ADC_DelSig_Start(); 
 137              		.loc 1 82 0
 138 0016 FFF7FEFF 		bl	ADC_DelSig_Start
 139              	.LVL5:
  83:main.c        ****                     UART_Start();                               //Starts all the devices.
 140              		.loc 1 83 0
 141 001a FFF7FEFF 		bl	UART_Start
 142              	.LVL6:
  84:main.c        ****                 
  85:main.c        ****                     SamplingState = 0;                          //Set the sampling state to 0 initi
 143              		.loc 1 85 0
ARM GAS  C:\Users\VINODK~1\AppData\Local\Temp\ccuspwYo.s 			page 5


 144 001e 0024     		movs	r4, #0
 145 0020 304B     		ldr	r3, .L22+4
 146 0022 1C70     		strb	r4, [r3]
  86:main.c        ****                     PinYellow_Write(0);
 147              		.loc 1 86 0
 148 0024 2046     		mov	r0, r4
 149 0026 FFF7FEFF 		bl	PinYellow_Write
 150              	.LVL7:
  87:main.c        ****                     PinRed_Write(1);
 151              		.loc 1 87 0
 152 002a 0120     		movs	r0, #1
 153 002c FFF7FEFF 		bl	PinRed_Write
 154              	.LVL8:
  88:main.c        ****                     PinGreen_Write(0);
 155              		.loc 1 88 0
 156 0030 2046     		mov	r0, r4
 157 0032 FFF7FEFF 		bl	PinGreen_Write
 158              	.LVL9:
  89:main.c        ****                                                                 //Make Red LED glow and other LED's
  90:main.c        ****                     break;
 159              		.loc 1 90 0
 160 0036 38BD     		pop	{r3, r4, r5, pc}
 161              	.L13:
  91:main.c        ****                             
  92:main.c        ****                 case IS_Sampling:
  93:main.c        ****                                                                  
  94:main.c        ****                     PinYellow_Write(1);
 162              		.loc 1 94 0
 163 0038 0120     		movs	r0, #1
 164 003a FFF7FEFF 		bl	PinYellow_Write
 165              	.LVL10:
  95:main.c        ****                     PinRed_Write(0);
 166              		.loc 1 95 0
 167 003e 0020     		movs	r0, #0
 168 0040 FFF7FEFF 		bl	PinRed_Write
 169              	.LVL11:
  96:main.c        ****                     PinGreen_Write(0);                          //Make Yellow LED glow and other LE
 170              		.loc 1 96 0
 171 0044 0020     		movs	r0, #0
 172 0046 FFF7FEFF 		bl	PinGreen_Write
 173              	.LVL12:
  97:main.c        ****                     if(SamplingState ==0)                       //If sampling state is 0 and push b
 174              		.loc 1 97 0
 175 004a 264B     		ldr	r3, .L22+4
 176 004c 1B78     		ldrb	r3, [r3]	@ zero_extendqisi2
 177 004e 9BB9     		cbnz	r3, .L16
  98:main.c        ****                     {
  99:main.c        ****                         ADC_DelSig_StartConvert();              //ADC Starts conversion.
 178              		.loc 1 99 0
 179 0050 FFF7FEFF 		bl	ADC_DelSig_StartConvert
 180              	.LVL13:
 181              	.LBB2:
 100:main.c        ****                         for(uint16_t i=0; i<1024; i++)
 182              		.loc 1 100 0
 183 0054 0024     		movs	r4, #0
 184 0056 09E0     		b	.L17
 185              	.LVL14:
ARM GAS  C:\Users\VINODK~1\AppData\Local\Temp\ccuspwYo.s 			page 6


 186              	.L18:
 101:main.c        ****                         {
 102:main.c        ****                             ADC_DelSig_IsEndConversion(ADC_DelSig_WAIT_FOR_RESULT);
 187              		.loc 1 102 0 discriminator 3
 188 0058 0020     		movs	r0, #0
 189 005a FFF7FEFF 		bl	ADC_DelSig_IsEndConversion
 190              	.LVL15:
 103:main.c        ****                             SampledArray[i] = ADC_DelSig_GetResult16();
 191              		.loc 1 103 0 discriminator 3
 192 005e FFF7FEFF 		bl	ADC_DelSig_GetResult16
 193              	.LVL16:
 194 0062 214B     		ldr	r3, .L22+8
 195 0064 23F81400 		strh	r0, [r3, r4, lsl #1]	@ movhi
 100:main.c        ****                         for(uint16_t i=0; i<1024; i++)
 196              		.loc 1 100 0 discriminator 3
 197 0068 0134     		adds	r4, r4, #1
 198              	.LVL17:
 199 006a A4B2     		uxth	r4, r4
 200              	.LVL18:
 201              	.L17:
 100:main.c        ****                         for(uint16_t i=0; i<1024; i++)
 202              		.loc 1 100 0 is_stmt 0 discriminator 1
 203 006c B4F5806F 		cmp	r4, #1024
 204 0070 F2D3     		bcc	.L18
 205              	.LBE2:
 104:main.c        ****                             
 105:main.c        ****                         }                                       /*A loop of 1024 to stop the conver
 106:main.c        ****                                                                 and store the value in an array.*/
 107:main.c        ****                         SamplingState = 1;                      //To indicate sampling is done for 
 206              		.loc 1 107 0 is_stmt 1
 207 0072 0122     		movs	r2, #1
 208 0074 1B4B     		ldr	r3, .L22+4
 209 0076 1A70     		strb	r2, [r3]
 210              	.LVL19:
 211              	.L16:
 108:main.c        ****                     }
 109:main.c        **** 
 110:main.c        ****                     if(character=='s' && SamplingState==1)
 212              		.loc 1 110 0
 213 0078 1C4B     		ldr	r3, .L22+12
 214 007a 1B78     		ldrb	r3, [r3]	@ zero_extendqisi2
 215 007c 732B     		cmp	r3, #115
 216 007e 2DD1     		bne	.L11
 217              		.loc 1 110 0 is_stmt 0 discriminator 1
 218 0080 184B     		ldr	r3, .L22+4
 219 0082 1B78     		ldrb	r3, [r3]	@ zero_extendqisi2
 220 0084 012B     		cmp	r3, #1
 221 0086 29D1     		bne	.L11
 111:main.c        ****                     {
 112:main.c        ****                         state = IS_UART_Transfer;
 222              		.loc 1 112 0 is_stmt 1
 223 0088 0222     		movs	r2, #2
 224 008a 154B     		ldr	r3, .L22
 225 008c 1A70     		strb	r2, [r3]
 113:main.c        ****                         SamplingState = 0;
 226              		.loc 1 113 0
 227 008e 0023     		movs	r3, #0
ARM GAS  C:\Users\VINODK~1\AppData\Local\Temp\ccuspwYo.s 			page 7


 228 0090 144A     		ldr	r2, .L22+4
 229 0092 1370     		strb	r3, [r2]
 114:main.c        ****                         character = 0;
 230              		.loc 1 114 0
 231 0094 154A     		ldr	r2, .L22+12
 232 0096 1370     		strb	r3, [r2]
 233 0098 38BD     		pop	{r3, r4, r5, pc}
 234              	.LVL20:
 235              	.L19:
 236              	.LBB3:
 115:main.c        ****                      }                                      /*If character is 's' and sampling stat
 116:main.c        ****                                                                 and reset sampling state and charac
 117:main.c        ****                         break;
 118:main.c        ****                         
 119:main.c        ****                 case IS_UART_Transfer:
 120:main.c        ****                             
 121:main.c        ****                       for(uint16_t i=0;i<1024;i++)
 122:main.c        ****                          {
 123:main.c        ****                             UART_PutChar(SampledArray[i]);
 237              		.loc 1 123 0 discriminator 3
 238 009a 134D     		ldr	r5, .L22+8
 239 009c 15F81400 		ldrb	r0, [r5, r4, lsl #1]	@ zero_extendqisi2
 240 00a0 FFF7FEFF 		bl	UART_PutChar
 241              	.LVL21:
 124:main.c        ****                             UART_PutChar(SampledArray[i]>>8);
 242              		.loc 1 124 0 discriminator 3
 243 00a4 35F81400 		ldrh	r0, [r5, r4, lsl #1]
 244 00a8 000A     		lsrs	r0, r0, #8
 245 00aa FFF7FEFF 		bl	UART_PutChar
 246              	.LVL22:
 121:main.c        ****                          {
 247              		.loc 1 121 0 discriminator 3
 248 00ae 0134     		adds	r4, r4, #1
 249              	.LVL23:
 250 00b0 A4B2     		uxth	r4, r4
 251              	.LVL24:
 252 00b2 00E0     		b	.L15
 253              	.LVL25:
 254              	.L20:
 255              	.LBE3:
  77:main.c        ****             {
 256              		.loc 1 77 0
 257 00b4 0024     		movs	r4, #0
 258              	.L15:
 259              	.LVL26:
 260              	.LBB4:
 121:main.c        ****                          {
 261              		.loc 1 121 0 discriminator 1
 262 00b6 B4F5806F 		cmp	r4, #1024
 263 00ba EED3     		bcc	.L19
 264              	.LBE4:
 125:main.c        ****                          }                              /*Loop to transfer data to MATLAB, 8 bits a
 126:main.c        ****                                                             8 times to get the next 8 bits.*/  
 127:main.c        ****             
 128:main.c        ****                         PinGreen_Write(1);
 265              		.loc 1 128 0
 266 00bc 0120     		movs	r0, #1
ARM GAS  C:\Users\VINODK~1\AppData\Local\Temp\ccuspwYo.s 			page 8


 267 00be FFF7FEFF 		bl	PinGreen_Write
 268              	.LVL27:
 129:main.c        ****                         PinRed_Write(0);
 269              		.loc 1 129 0
 270 00c2 0020     		movs	r0, #0
 271 00c4 FFF7FEFF 		bl	PinRed_Write
 272              	.LVL28:
 130:main.c        ****                         PinYellow_Write(0);             //Make Green LED glow and other LED's Off t
 273              		.loc 1 130 0
 274 00c8 0020     		movs	r0, #0
 275 00ca FFF7FEFF 		bl	PinYellow_Write
 276              	.LVL29:
 131:main.c        ****                                             
 132:main.c        ****                         if(character == 'o')
 277              		.loc 1 132 0
 278 00ce 074B     		ldr	r3, .L22+12
 279 00d0 1B78     		ldrb	r3, [r3]	@ zero_extendqisi2
 280 00d2 6F2B     		cmp	r3, #111
 281 00d4 02D1     		bne	.L11
 133:main.c        ****                         {
 134:main.c        ****                              state=IS_Sampling;         //If MATLAB sends character 'o' then move b
 282              		.loc 1 134 0
 283 00d6 0122     		movs	r2, #1
 284 00d8 014B     		ldr	r3, .L22
 285 00da 1A70     		strb	r2, [r3]
 286              	.LVL30:
 287              	.L11:
 288 00dc 38BD     		pop	{r3, r4, r5, pc}
 289              	.L23:
 290 00de 00BF     		.align	2
 291              	.L22:
 292 00e0 00000000 		.word	.LANCHOR0
 293 00e4 00000000 		.word	SamplingState
 294 00e8 00000000 		.word	SampledArray
 295 00ec 00000000 		.word	character
 296              		.cfi_endproc
 297              	.LFE67:
 298              		.size	statechange, .-statechange
 299              		.section	.text.main,"ax",%progbits
 300              		.align	2
 301              		.global	main
 302              		.thumb
 303              		.thumb_func
 304              		.type	main, %function
 305              	main:
 306              	.LFB66:
  56:main.c        ****     
 307              		.loc 1 56 0
 308              		.cfi_startproc
 309              		@ Volatile: function does not return.
 310              		@ args = 0, pretend = 0, frame = 0
 311              		@ frame_needed = 0, uses_anonymous_args = 0
 312 0000 08B5     		push	{r3, lr}
 313              		.cfi_def_cfa_offset 8
 314              		.cfi_offset 3, -8
 315              		.cfi_offset 14, -4
  58:main.c        ****    
ARM GAS  C:\Users\VINODK~1\AppData\Local\Temp\ccuspwYo.s 			page 9


 316              		.loc 1 58 0
 317              		.syntax unified
 318              	@ 58 "main.c" 1
 319 0002 62B6     		CPSIE   i
 320              	@ 0 "" 2
  60:main.c        ****     isr_PushButton_StartEx(ISR_button);
 321              		.loc 1 60 0
 322              		.thumb
 323              		.syntax unified
 324 0004 0548     		ldr	r0, .L27
 325 0006 FFF7FEFF 		bl	isr_ADC_StartEx
 326              	.LVL31:
  61:main.c        ****     isr_UART_StartEx(UART_INT);                 //Starts all the interrupts.
 327              		.loc 1 61 0
 328 000a 0548     		ldr	r0, .L27+4
 329 000c FFF7FEFF 		bl	isr_PushButton_StartEx
 330              	.LVL32:
  62:main.c        ****     
 331              		.loc 1 62 0
 332 0010 0448     		ldr	r0, .L27+8
 333 0012 FFF7FEFF 		bl	isr_UART_StartEx
 334              	.LVL33:
 335              	.L25:
  68:main.c        ****     }
 336              		.loc 1 68 0 discriminator 1
 337 0016 FFF7FEFF 		bl	statechange
 338              	.LVL34:
 339 001a FCE7     		b	.L25
 340              	.L28:
 341              		.align	2
 342              	.L27:
 343 001c 00000000 		.word	isr_ADC
 344 0020 00000000 		.word	ISR_button
 345 0024 00000000 		.word	UART_INT
 346              		.cfi_endproc
 347              	.LFE66:
 348              		.size	main, .-main
 349              		.global	state
 350              		.comm	SamplingState,1,1
 351              		.comm	character,1,1
 352              		.comm	SampledArray,2048,4
 353              		.bss
 354              		.set	.LANCHOR0,. + 0
 355              		.type	state, %object
 356              		.size	state, 1
 357              	state:
 358 0000 00       		.space	1
 359              		.text
 360              	.Letext0:
 361              		.file 2 "c:\\program files (x86)\\cypress\\psoc creator\\4.4\\psoc creator\\import\\gnu\\arm\\5.4.
 362              		.file 3 "c:\\program files (x86)\\cypress\\psoc creator\\4.4\\psoc creator\\import\\gnu\\arm\\5.4.
 363              		.file 4 "Generated_Source\\PSoC5/core_cm3.h"
 364              		.file 5 "Generated_Source\\PSoC5/Pin_PushButton.h"
 365              		.file 6 "Generated_Source\\PSoC5/UART.h"
 366              		.file 7 "Generated_Source\\PSoC5/isr_UART.h"
 367              		.file 8 "Generated_Source\\PSoC5/isr_ADC.h"
 368              		.file 9 "Generated_Source\\PSoC5/ADC_DelSig.h"
ARM GAS  C:\Users\VINODK~1\AppData\Local\Temp\ccuspwYo.s 			page 10


 369              		.file 10 "Generated_Source\\PSoC5/WaveDAC8.h"
 370              		.file 11 "Generated_Source\\PSoC5/PinYellow.h"
 371              		.file 12 "Generated_Source\\PSoC5/PinRed.h"
 372              		.file 13 "Generated_Source\\PSoC5/PinGreen.h"
 373              		.file 14 "Generated_Source\\PSoC5/isr_PushButton.h"